; Function Attrs: mustprogress nofree norecurse nosync nounwind willreturn memory(argmem: readwrite) uwtable
define hidden void @_ZN5ceres12CostFunctionC2EOS0_(ptr nocapture noundef nonnull writeonly align 8 dereferenceable(36) %0, ptr nocapture noundef nonnull align 8 dereferenceable(36) %1) unnamed_addr #0 align 2 {
  store ptr getelementptr inbounds ({ [5 x ptr] }, ptr @_ZTVN5ceres12CostFunctionE, i64 0, i32 0, i64 2), ptr %0, align 8
  %3 = getelementptr inbounds i8, ptr %0, i64 8
  %4 = getelementptr inbounds i8, ptr %1, i64 8
  %5 = load ptr, ptr %4, align 8
  store ptr %5, ptr %3, align 8
  %6 = getelementptr inbounds i8, ptr %0, i64 16
  %7 = getelementptr inbounds i8, ptr %1, i64 16
  %8 = load ptr, ptr %7, align 8
  store ptr %8, ptr %6, align 8
  %9 = getelementptr inbounds i8, ptr %0, i64 24
  %10 = getelementptr inbounds i8, ptr %1, i64 24
  %11 = load ptr, ptr %10, align 8
  store ptr %11, ptr %9, align 8
  tail call void @llvm.memset.p0.i64(ptr noundef nonnull align 8 dereferenceable(24) %4, i8 0, i64 24, i1 false)
  %12 = getelementptr inbounds i8, ptr %0, i64 32
  %13 = getelementptr inbounds i8, ptr %1, i64 32
  %14 = load i32, ptr %13, align 8
  store i32 %14, ptr %12, align 8
  ret void
}